target datalayout = "e-m:e-p270:32:32-p271:32:32-p272:64:64-i64:64-i128:128-f80:128-n8:16:32:64-S128"
target triple = "x86_64-pc-linux-gnu"

%struct.oid_sig_alg_t = type { %struct.mbedtls_oid_descriptor_t, i32, i32 }
%struct.mbedtls_oid_descriptor_t = type { ptr, i64, ptr, ptr }

; Function Attrs: nounwind uwtable
define hidden i32 @mbedtls_oid_get_oid_by_sig_alg(i32 noundef %0, i32 noundef %1, ptr noundef %2, ptr noundef %3) #0 {
  %5 = alloca i32, align 4
  %6 = alloca i32, align 4
  %7 = alloca i32, align 4
  %8 = alloca ptr, align 8
  %9 = alloca ptr, align 8
  %10 = alloca ptr, align 8
  %11 = alloca i32, align 4
  store i32 %0, ptr %6, align 4, !tbaa !32
  store i32 %1, ptr %7, align 4, !tbaa !32
  store ptr %2, ptr %8, align 8, !tbaa !8
  store ptr %3, ptr %9, align 8, !tbaa !42
  call void @llvm.lifetime.start.p0(i64 8, ptr %10) #6
  store ptr @oid_sig_alg, ptr %10, align 8, !tbaa !11
  br label %12

12:                                               ; preds = %41, %4
  %13 = load ptr, ptr %10, align 8, !tbaa !11
  %14 = getelementptr inbounds nuw %struct.oid_sig_alg_t, ptr %13, i32 0, i32 0
  %15 = getelementptr inbounds nuw %struct.mbedtls_oid_descriptor_t, ptr %14, i32 0, i32 0
  %16 = load ptr, ptr %15, align 8, !tbaa !44
  %17 = icmp ne ptr %16, null
  br i1 %17, label %18, label %44

18:                                               ; preds = %12
  %19 = load ptr, ptr %10, align 8, !tbaa !11
  %20 = getelementptr inbounds nuw %struct.oid_sig_alg_t, ptr %19, i32 0, i32 2
  %21 = load i32, ptr %20, align 4, !tbaa !41
  %22 = load i32, ptr %6, align 4, !tbaa !32
  %23 = icmp eq i32 %21, %22
  br i1 %23, label %24, label %41

24:                                               ; preds = %18
  %25 = load ptr, ptr %10, align 8, !tbaa !11
  %26 = getelementptr inbounds nuw %struct.oid_sig_alg_t, ptr %25, i32 0, i32 1
  %27 = load i32, ptr %26, align 8, !tbaa !40
  %28 = load i32, ptr %7, align 4, !tbaa !32
  %29 = icmp eq i32 %27, %28
  br i1 %29, label %30, label %41

30:                                               ; preds = %24
  %31 = load ptr, ptr %10, align 8, !tbaa !11
  %32 = getelementptr inbounds nuw %struct.oid_sig_alg_t, ptr %31, i32 0, i32 0
  %33 = getelementptr inbounds nuw %struct.mbedtls_oid_descriptor_t, ptr %32, i32 0, i32 0
  %34 = load ptr, ptr %33, align 8, !tbaa !44
  %35 = load ptr, ptr %8, align 8, !tbaa !8
  store ptr %34, ptr %35, align 8, !tbaa !17
  %36 = load ptr, ptr %10, align 8, !tbaa !11
  %37 = getelementptr inbounds nuw %struct.oid_sig_alg_t, ptr %36, i32 0, i32 0
  %38 = getelementptr inbounds nuw %struct.mbedtls_oid_descriptor_t, ptr %37, i32 0, i32 1
  %39 = load i64, ptr %38, align 8, !tbaa !45
  %40 = load ptr, ptr %9, align 8, !tbaa !42
  store i64 %39, ptr %40, align 8, !tbaa !46
  store i32 0, ptr %5, align 4
  store i32 1, ptr %11, align 4
  br label %45

41:                                               ; preds = %24, %18
  %42 = load ptr, ptr %10, align 8, !tbaa !11
  %43 = getelementptr inbounds nuw %struct.oid_sig_alg_t, ptr %42, i32 1
  store ptr %43, ptr %10, align 8, !tbaa !11
  br label %12, !llvm.loop !47

44:                                               ; preds = %12
  store i32 -46, ptr %5, align 4
  store i32 1, ptr %11, align 4
  br label %45

45:                                               ; preds = %44, %30
  call void @llvm.lifetime.end.p0(i64 8, ptr %10) #6
  %46 = load i32, ptr %5, align 4
  ret i32 %46
}